target datalayout = "e-m:e-p270:32:32-p271:32:32-p272:64:64-i64:64-i128:128-f80:128-n8:16:32:64-S128"
target triple = "x86_64-pc-linux-gnu"

%"struct.rocksdb::Cache::AsyncLookupHandle" = type <{ %"class.rocksdb::Slice", ptr, ptr, i32, [4 x i8], ptr, ptr, ptr, ptr, i8, i8, [6 x i8] }>
%"class.rocksdb::Slice" = type { ptr, i64 }

; Function Attrs: mustprogress uwtable
define noundef zeroext i1 @_ZN7rocksdb5Cache17AsyncLookupHandle7IsReadyEv(ptr noundef nonnull align 8 dereferenceable(74) %0) #1 align 2 {
  %2 = alloca ptr, align 8
  store ptr %0, ptr %2, align 8, !tbaa !159
  %3 = load ptr, ptr %2, align 8
  %4 = getelementptr inbounds nuw %"struct.rocksdb::Cache::AsyncLookupHandle", ptr %3, i32 0, i32 7
  %5 = load ptr, ptr %4, align 8, !tbaa !161
  %6 = icmp eq ptr %5, null
  br i1 %6, label %14, label %7

7:                                                ; preds = %1
  %8 = getelementptr inbounds nuw %"struct.rocksdb::Cache::AsyncLookupHandle", ptr %3, i32 0, i32 7
  %9 = load ptr, ptr %8, align 8, !tbaa !161
  %10 = load ptr, ptr %9, align 8, !tbaa !112
  %11 = getelementptr inbounds ptr, ptr %10, i64 2
  %12 = load ptr, ptr %11, align 8
  %13 = call noundef zeroext i1 %12(ptr noundef nonnull align 8 dereferenceable(8) %9)
  br label %14

14:                                               ; preds = %7, %1
  %15 = phi i1 [ true, %1 ], [ %13, %7 ]
  ret i1 %15
}